Certificate:
    Data:
        Version: 3 (0x2)
        Serial Number: 1 (0x1)
        Signature Algorithm: sha256WithRSAEncryption
        Issuer: C=US, ST=WASHINGTON, O=OpenGroup, OU=OpenPegasus, CN=TestCA
        Validity
            Not Before: May 17 15:44:15 2021 GMT
            Not After : May 15 15:44:15 2031 GMT
        Subject: C=US, ST=WASHINGTON, O=OpenGroup, OU=OpenPegasus, CN=TestCA
        Subject Public Key Info:
            Public Key Algorithm: rsaEncryption
                RSA Public-Key: (2048 bit)
                Modulus:
                    00:e7:ad:2a:c0:52:1e:f4:1c:91:47:9e:54:6f:25:
                    15:8a:30:93:4f:c6:a9:22:f0:bb:b4:1f:6e:01:7a:
                    6a:8c:1a:5d:53:17:b7:5a:06:03:20:63:b3:ad:56:
                    73:f5:55:19:7e:fa:4f:4d:39:3d:6e:c9:70:db:a9:
                    9c:f1:b6:8f:e1:7d:43:c9:8f:f2:96:cb:94:50:ce:
                    43:c1:34:99:69:90:f9:a9:ed:3b:6d:3d:a8:72:98:
                    19:03:11:6c:3f:53:d8:2c:ee:9f:d8:a1:db:0a:1b:
                    a0:13:36:e1:56:4a:99:53:05:c5:16:fd:2c:9f:8e:
                    da:30:62:bf:56:01:ac:97:9a:a4:db:36:4f:c2:cb:
                    e4:5f:ef:a3:5a:21:66:e9:8f:1e:35:4d:04:c5:7f:
                    46:ac:7b:c5:18:5e:b6:f8:f0:ed:c5:da:e7:ce:88:
                    4d:e3:fe:33:78:e8:f1:ca:98:cc:13:2f:0a:04:c6:
                    79:c1:bd:8e:52:b2:18:d6:38:ac:06:e4:90:3a:20:
                    dc:04:32:48:ea:b8:56:03:f9:f2:3e:1b:77:ed:f4:
                    3a:22:e9:1d:60:5f:eb:cf:ef:cf:49:d5:d9:39:1f:
                    c8:04:2d:73:3f:6d:43:ab:cf:81:ba:ba:50:0e:15:
                    a0:d0:71:97:3a:37:48:fd:fb:21:c0:e8:72:38:40:
                    11:af
                Exponent: 65537 (0x10001)
        X509v3 extensions:
            X509v3 Subject Key Identifier: 
                01:48:4E:C5:E3:C5:06:88:7E:18:59:FE:46:67:5A:FA:9F:7E:23:FC
            X509v3 Authority Key Identifier: 
                keyid:01:48:4E:C5:E3:C5:06:88:7E:18:59:FE:46:67:5A:FA:9F:7E:23:FC
                DirName:/C=US/ST=WASHINGTON/O=OpenGroup/OU=OpenPegasus/CN=TestCA
                serial:01

            X509v3 Basic Constraints: 
                CA:TRUE
    Signature Algorithm: sha256WithRSAEncryption
         2e:ae:2d:0b:2e:38:31:09:34:43:40:8f:53:92:92:bf:e5:0e:
         71:9b:d9:e8:30:c2:76:ab:22:82:02:28:e8:57:af:91:7b:e0:
         50:9e:be:86:21:38:23:c1:da:18:46:fb:5a:5e:82:7d:59:b1:
         60:5a:25:40:bd:ef:8a:9b:e6:c3:3a:e1:f8:77:7e:d9:f3:2d:
         84:7e:8a:50:6a:5c:14:2e:60:f1:6b:a2:d5:6b:b5:cf:61:df:
         94:2e:a1:02:f5:b2:25:b8:39:b8:fc:8f:c4:d3:30:17:4e:c6:
         c5:0e:f9:d3:71:6e:93:88:f4:62:6d:ef:d7:53:d9:5a:7a:a4:
         23:b5:49:2d:19:9b:75:f9:15:e2:2e:47:9d:ac:44:0b:a0:c5:
         4e:1d:ba:88:d1:fe:f4:71:47:1b:c2:40:b5:1b:31:d5:6c:1b:
         b5:77:65:8d:7f:43:de:fe:df:1c:fb:62:54:31:d7:79:ee:57:
         e4:e0:2a:b8:a4:86:13:9a:9a:30:34:70:ba:ec:9c:b7:f0:c7:
         de:d8:86:5e:5f:68:e1:60:b4:ff:4c:79:32:82:06:4c:60:b7:
         cd:41:aa:7b:ee:11:ee:22:f3:fe:9b:24:94:40:a7:c2:8a:ab:
         90:25:db:77:03:ad:d9:3f:82:cc:d6:4a:7f:be:06:c8:31:bc:
         3e:70:7e:46
-----BEGIN CERTIFICATE-----
MIID7jCCAtagAwIBAgIBATANBgkqhkiG9w0BAQsFADBdMQswCQYDVQQGEwJVUzET
MBEGA1UECAwKV0FTSElOR1RPTjESMBAGA1UECgwJT3Blbkdyb3VwMRQwEgYDVQQL
DAtPcGVuUGVnYXN1czEPMA0GA1UEAwwGVGVzdENBMB4XDTIxMDUxNzE1NDQxNVoX
DTMxMDUxNTE1NDQxNVowXTELMAkGA1UEBhMCVVMxEzARBgNVBAgMCldBU0hJTkdU
T04xEjAQBgNVBAoMCU9wZW5Hcm91cDEUMBIGA1UECwwLT3BlblBlZ2FzdXMxDzAN
BgNVBAMMBlRlc3RDQTCCASIwDQYJKoZIhvcNAQEBBQADggEPADCCAQoCggEBAOet
KsBSHvQckUeeVG8lFYowk0/GqSLwu7QfbgF6aowaXVMXt1oGAyBjs61Wc/VVGX76
T005PW7JcNupnPG2j+F9Q8mP8pbLlFDOQ8E0mWmQ+antO209qHKYGQMRbD9T2Czu
n9ih2woboBM24VZKmVMFxRb9LJ+O2jBiv1YBrJeapNs2T8LL5F/vo1ohZumPHjVN
BMV/Rqx7xRhetvjw7cXa586ITeP+M3jo8cqYzBMvCgTGecG9jlKyGNY4rAbkkDog
3AQySOq4VgP58j4bd+30OiLpHWBf68/vz0nV2TkfyAQtcz9tQ6vPgbq6UA4VoNBx
lzo3SP37IcDocjhAEa8CAwEAAaOBuDCBtTAdBgNVHQ4EFgQUAUhOxePFBoh+GFn+
Rmda+p9+I/wwgYUGA1UdIwR+MHyAFAFITsXjxQaIfhhZ/kZnWvqffiP8oWGkXzBd
MQswCQYDVQQGEwJVUzETMBEGA1UECAwKV0FTSElOR1RPTjESMBAGA1UECgwJT3Bl
bkdyb3VwMRQwEgYDVQQLDAtPcGVuUGVnYXN1czEPMA0GA1UEAwwGVGVzdENBggEB
MAwGA1UdEwQFMAMBAf8wDQYJKoZIhvcNAQELBQADggEBAC6uLQsuODEJNENAj1OS
kr/lDnGb2egwwnarIoICKOhXr5F74FCevoYhOCPB2hhG+1pegn1ZsWBaJUC974qb
5sM64fh3ftnzLYR+ilBqXBQuYPFrotVrtc9h35QuoQL1siW4Obj8j8TTMBdOxsUO
+dNxbpOI9GJt79dT2Vp6pCO1SS0Zm3X5FeIuR52sRAugxU4duojR/vRxRxvCQLUb
MdVsG7V3ZY1/Q97+3xz7YlQx13nuV+TgKrikhhOamjA0cLrsnLfwx97Yhl5faOFg
tP9MeTKCBkxgt81BqnvuEe4i8/6bJJRAp8KKq5Al23cDrdk/gszWSn++BsgxvD5w
fkY=
-----END CERTIFICATE-----
