Certificate:
    Data:
        Version: 3 (0x2)
        Serial Number: 1 (0x1)
        Signature Algorithm: sha256WithRSAEncryption
        Issuer: CN=TestChainCA, ST=California, L=Sacramento, C=US, O=OpenGroup, OU=OpenPegasus
        Validity
            Not Before: May  9 20:27:48 2021 GMT
            Not After : May  7 20:27:48 2031 GMT
        Subject: CN=TestChainCA, ST=California, L=Sacramento, C=US, O=OpenGroup, OU=OpenPegasus
        Subject Public Key Info:
            Public Key Algorithm: rsaEncryption
                RSA Public-Key: (2048 bit)
                Modulus:
                    00:a9:86:3a:d7:a4:c9:14:7f:29:9f:f0:22:18:06:
                    b8:95:a6:72:2a:62:71:ec:84:ec:cb:4d:90:6b:84:
                    f2:7b:39:0e:13:f5:bd:e5:58:2e:01:20:8c:79:52:
                    4c:54:bb:f7:c9:56:bb:05:5a:77:19:59:51:34:dd:
                    e4:a4:ca:c1:bf:f5:f3:8c:31:14:c4:08:c0:89:17:
                    b1:2e:d2:3e:db:fa:66:c3:1e:c9:c0:1a:49:6e:43:
                    3c:66:de:46:56:42:20:42:ad:ec:86:ea:30:87:33:
                    98:93:81:4d:40:81:1d:49:d4:b7:d9:9b:12:4a:e3:
                    a3:8f:de:e4:b7:25:c9:61:d2:6f:1d:38:b7:fd:74:
                    a5:7f:90:af:9c:9e:66:4a:7e:d3:19:23:d0:ba:9d:
                    14:28:dd:72:60:31:ef:d6:0b:54:2f:45:7b:70:28:
                    00:a1:79:19:e7:0d:0d:fd:d3:e4:36:2c:18:82:86:
                    62:2e:10:7f:d5:61:60:84:13:01:d0:27:0c:12:a3:
                    e2:ee:02:3f:a7:0b:37:0b:1d:a4:f7:31:1f:bc:f2:
                    4e:3c:22:e8:72:db:7c:03:ac:8e:83:f1:92:a7:fd:
                    60:71:08:1e:55:9c:0f:ec:14:26:01:b6:a4:fa:64:
                    8e:9e:e2:f9:46:7a:5a:97:da:82:75:93:a0:cf:02:
                    82:fd
                Exponent: 65537 (0x10001)
        X509v3 extensions:
            X509v3 Subject Key Identifier: 
                12:5B:C5:75:AA:FC:66:99:87:3A:1C:B6:78:FF:91:DE:DD:89:60:63
            X509v3 Authority Key Identifier: 
                keyid:12:5B:C5:75:AA:FC:66:99:87:3A:1C:B6:78:FF:91:DE:DD:89:60:63
                DirName:/CN=TestChainCA/ST=California/L=Sacramento/C=US/O=OpenGroup/OU=OpenPegasus
                serial:01

            X509v3 Basic Constraints: 
                CA:TRUE
    Signature Algorithm: sha256WithRSAEncryption
         80:e0:22:9f:16:e9:2a:ec:8c:8e:3c:b6:56:26:4b:42:89:0b:
         aa:b0:20:fa:da:6a:31:af:f9:a3:5b:f0:64:09:77:62:fc:ef:
         16:04:f0:5b:07:9d:dd:f1:42:b4:a8:ef:b8:8e:82:80:b1:1e:
         4a:48:eb:6e:c3:b4:0f:a4:f7:39:d3:dd:48:dd:cf:02:5d:a3:
         d3:f3:8b:b7:d5:7c:21:b9:be:03:4f:24:ea:e5:4b:92:d1:1d:
         63:1b:78:3b:53:8a:e8:00:ae:cd:c4:b0:a0:cb:c1:25:8a:23:
         20:1a:07:6b:37:b1:70:7f:8c:c3:d3:9e:0b:45:4c:bf:c7:f4:
         27:5e:ec:b5:9e:6c:bb:5b:82:a2:58:41:2c:3a:ae:75:23:22:
         b5:89:7a:c2:00:4f:e4:ca:d0:fd:13:73:65:d0:02:1a:af:8a:
         df:79:39:93:ff:15:bf:ee:62:46:2c:36:13:5e:c2:80:86:c0:
         02:60:11:67:c3:33:73:46:71:2d:3f:97:ec:3f:d9:78:b2:53:
         b6:ec:32:6a:27:32:9f:58:ac:13:12:a2:bf:94:3e:8f:28:72:
         ff:db:cb:50:c6:ea:12:26:59:63:ba:da:e4:3e:f2:f1:16:9d:
         86:5b:0c:c5:9f:4c:d4:91:46:b2:5a:85:85:0e:c7:20:f3:69:
         13:17:6a:98
-----BEGIN CERTIFICATE-----
MIIEPjCCAyagAwIBAgIBATANBgkqhkiG9w0BAQsFADB3MRQwEgYDVQQDDAtUZXN0
Q2hhaW5DQTETMBEGA1UECAwKQ2FsaWZvcm5pYTETMBEGA1UEBwwKU2FjcmFtZW50
bzELMAkGA1UEBhMCVVMxEjAQBgNVBAoMCU9wZW5Hcm91cDEUMBIGA1UECwwLT3Bl
blBlZ2FzdXMwHhcNMjEwNTA5MjAyNzQ4WhcNMzEwNTA3MjAyNzQ4WjB3MRQwEgYD
VQQDDAtUZXN0Q2hhaW5DQTETMBEGA1UECAwKQ2FsaWZvcm5pYTETMBEGA1UEBwwK
U2FjcmFtZW50bzELMAkGA1UEBhMCVVMxEjAQBgNVBAoMCU9wZW5Hcm91cDEUMBIG
A1UECwwLT3BlblBlZ2FzdXMwggEiMA0GCSqGSIb3DQEBAQUAA4IBDwAwggEKAoIB
AQCphjrXpMkUfymf8CIYBriVpnIqYnHshOzLTZBrhPJ7OQ4T9b3lWC4BIIx5UkxU
u/fJVrsFWncZWVE03eSkysG/9fOMMRTECMCJF7Eu0j7b+mbDHsnAGkluQzxm3kZW
QiBCreyG6jCHM5iTgU1AgR1J1LfZmxJK46OP3uS3Jclh0m8dOLf9dKV/kK+cnmZK
ftMZI9C6nRQo3XJgMe/WC1QvRXtwKACheRnnDQ390+Q2LBiChmIuEH/VYWCEEwHQ
JwwSo+LuAj+nCzcLHaT3MR+88k48Iuhy23wDrI6D8ZKn/WBxCB5VnA/sFCYBtqT6
ZI6e4vlGelqX2oJ1k6DPAoL9AgMBAAGjgdQwgdEwHQYDVR0OBBYEFBJbxXWq/GaZ
hzoctnj/kd7diWBjMIGhBgNVHSMEgZkwgZaAFBJbxXWq/GaZhzoctnj/kd7diWBj
oXukeTB3MRQwEgYDVQQDDAtUZXN0Q2hhaW5DQTETMBEGA1UECAwKQ2FsaWZvcm5p
YTETMBEGA1UEBwwKU2FjcmFtZW50bzELMAkGA1UEBhMCVVMxEjAQBgNVBAoMCU9w
ZW5Hcm91cDEUMBIGA1UECwwLT3BlblBlZ2FzdXOCAQEwDAYDVR0TBAUwAwEB/zAN
BgkqhkiG9w0BAQsFAAOCAQEAgOAinxbpKuyMjjy2ViZLQokLqrAg+tpqMa/5o1vw
ZAl3YvzvFgTwWwed3fFCtKjvuI6CgLEeSkjrbsO0D6T3OdPdSN3PAl2j0/OLt9V8
Ibm+A08k6uVLktEdYxt4O1OK6ACuzcSwoMvBJYojIBoHazexcH+Mw9OeC0VMv8f0
J17stZ5su1uColhBLDqudSMitYl6wgBP5MrQ/RNzZdACGq+K33k5k/8Vv+5iRiw2
E17CgIbAAmARZ8Mzc0ZxLT+X7D/ZeLJTtuwyaicyn1isExKiv5Q+jyhy/9vLUMbq
EiZZY7ra5D7y8RadhlsMxZ9M1JFGslqFhQ7HIPNpExdqmA==
-----END CERTIFICATE-----
