Certificate:
    Data:
        Version: 3 (0x2)
        Serial Number: 1 (0x1)
        Signature Algorithm: sha256WithRSAEncryption
        Issuer: C=US, ST=California, L=Sacramento, O=OpenGroup, OU=OpenPegasus, CN=TestChainCA
        Validity
            Not Before: May 11 22:02:50 2021 GMT
            Not After : May  9 22:02:50 2031 GMT
        Subject: C=US, ST=California, L=Sacramento, O=OpenGroup, OU=OpenPegasus, CN=TestChainCA
        Subject Public Key Info:
            Public Key Algorithm: rsaEncryption
                RSA Public-Key: (2048 bit)
                Modulus:
                    00:d3:09:75:17:a7:0d:a7:74:4a:29:08:4a:5e:4c:
                    f3:01:ad:52:98:7b:aa:7c:97:85:b5:cd:07:f1:c8:
                    1b:a8:bd:ee:a6:f0:a4:51:59:cc:58:dd:91:76:3d:
                    96:a5:27:92:24:13:0b:73:3d:49:c8:cf:bc:6b:0d:
                    be:f2:70:99:08:1f:be:08:f2:f9:cb:ab:c6:5a:2e:
                    82:84:31:ad:87:07:00:5d:b4:3d:4b:a7:a6:09:a7:
                    a3:7f:0f:7f:d7:8a:83:1f:44:c7:90:cc:0b:b7:4c:
                    ab:dc:57:f1:7e:81:72:d3:b0:87:e8:0d:77:ac:cf:
                    29:e5:25:10:fe:20:42:45:e5:d1:63:02:64:9c:1d:
                    eb:be:06:ee:44:b1:c9:f3:2a:46:33:21:57:09:39:
                    a0:81:d7:04:ac:d7:a9:2e:44:e1:cd:7d:1f:51:52:
                    d0:4f:1f:75:b3:77:db:a4:92:5f:37:7a:4a:28:0f:
                    ac:27:b9:e1:6c:a7:0b:09:44:cd:34:4a:5f:22:b1:
                    a9:e6:20:a0:bd:ae:5f:62:bb:1c:c2:dc:af:78:e3:
                    4e:f9:e0:1d:ee:e9:28:28:a7:88:3e:52:bb:25:4a:
                    62:01:42:97:6f:2a:74:1e:5b:7d:d7:b4:1d:56:fb:
                    2e:8e:b6:ce:6b:4e:b8:20:ee:19:b7:77:4e:1f:f1:
                    0e:5b
                Exponent: 65537 (0x10001)
        X509v3 extensions:
            X509v3 Subject Key Identifier: 
                1B:4B:24:C4:28:27:09:53:28:77:0D:6F:DE:5F:E9:C5:BB:E1:64:B5
            X509v3 Authority Key Identifier: 
                keyid:1B:4B:24:C4:28:27:09:53:28:77:0D:6F:DE:5F:E9:C5:BB:E1:64:B5
                DirName:/C=US/ST=California/L=Sacramento/O=OpenGroup/OU=OpenPegasus/CN=TestChainCA
                serial:01

            X509v3 Basic Constraints: 
                CA:TRUE
    Signature Algorithm: sha256WithRSAEncryption
         a3:d6:e1:8b:b2:e7:b4:33:74:38:a5:bc:31:a2:a8:e9:6a:3f:
         bc:93:b7:32:d8:72:55:a7:32:44:7e:44:18:c1:20:2f:13:dc:
         c7:e5:a4:22:1d:88:57:6a:43:b4:64:11:eb:45:34:e4:19:94:
         cb:ca:d4:11:91:cf:3b:1e:a1:4c:f5:92:0e:23:7b:66:d6:fd:
         0b:9b:97:2a:37:39:29:3c:53:eb:5a:ce:6a:01:33:2f:a0:81:
         1e:b8:db:43:60:cb:9b:f2:93:66:19:61:07:21:da:39:36:6a:
         af:05:8c:14:b8:a9:3d:ee:8d:a8:b8:d0:e9:1c:d6:5d:8a:77:
         35:e3:98:aa:ec:fb:bd:c0:bc:fb:a2:c7:a7:53:ef:39:be:08:
         92:a4:ff:2e:04:dc:33:11:75:62:86:34:01:b2:98:6a:31:76:
         d2:fd:b9:e7:fc:06:02:3a:f1:cb:5d:65:33:bf:b8:fa:25:fa:
         2b:2c:17:6c:be:b3:99:ab:cc:5f:00:31:09:dc:45:ec:db:89:
         18:51:11:f0:4b:4c:ec:83:15:ba:ab:40:db:94:01:74:d7:e4:
         68:54:77:2e:2f:e0:83:e6:7c:f3:57:e0:01:32:bc:ed:61:7e:
         1a:a9:ae:8b:1a:be:13:e5:8a:02:b8:e1:88:cd:8b:45:ff:44:
         cf:76:91:68
-----BEGIN CERTIFICATE-----
MIIEPjCCAyagAwIBAgIBATANBgkqhkiG9w0BAQsFADB3MQswCQYDVQQGEwJVUzET
MBEGA1UECAwKQ2FsaWZvcm5pYTETMBEGA1UEBwwKU2FjcmFtZW50bzESMBAGA1UE
CgwJT3Blbkdyb3VwMRQwEgYDVQQLDAtPcGVuUGVnYXN1czEUMBIGA1UEAwwLVGVz
dENoYWluQ0EwHhcNMjEwNTExMjIwMjUwWhcNMzEwNTA5MjIwMjUwWjB3MQswCQYD
VQQGEwJVUzETMBEGA1UECAwKQ2FsaWZvcm5pYTETMBEGA1UEBwwKU2FjcmFtZW50
bzESMBAGA1UECgwJT3Blbkdyb3VwMRQwEgYDVQQLDAtPcGVuUGVnYXN1czEUMBIG
A1UEAwwLVGVzdENoYWluQ0EwggEiMA0GCSqGSIb3DQEBAQUAA4IBDwAwggEKAoIB
AQDTCXUXpw2ndEopCEpeTPMBrVKYe6p8l4W1zQfxyBuove6m8KRRWcxY3ZF2PZal
J5IkEwtzPUnIz7xrDb7ycJkIH74I8vnLq8ZaLoKEMa2HBwBdtD1Lp6YJp6N/D3/X
ioMfRMeQzAu3TKvcV/F+gXLTsIfoDXeszynlJRD+IEJF5dFjAmScHeu+Bu5Escnz
KkYzIVcJOaCB1wSs16kuROHNfR9RUtBPH3Wzd9ukkl83ekooD6wnueFspwsJRM00
Sl8isanmIKC9rl9iuxzC3K9440754B3u6Sgop4g+UrslSmIBQpdvKnQeW33XtB1W
+y6Ots5rTrgg7hm3d04f8Q5bAgMBAAGjgdQwgdEwHQYDVR0OBBYEFBtLJMQoJwlT
KHcNb95f6cW74WS1MIGhBgNVHSMEgZkwgZaAFBtLJMQoJwlTKHcNb95f6cW74WS1
oXukeTB3MQswCQYDVQQGEwJVUzETMBEGA1UECAwKQ2FsaWZvcm5pYTETMBEGA1UE
BwwKU2FjcmFtZW50bzESMBAGA1UECgwJT3Blbkdyb3VwMRQwEgYDVQQLDAtPcGVu
UGVnYXN1czEUMBIGA1UEAwwLVGVzdENoYWluQ0GCAQEwDAYDVR0TBAUwAwEB/zAN
BgkqhkiG9w0BAQsFAAOCAQEAo9bhi7LntDN0OKW8MaKo6Wo/vJO3MthyVacyRH5E
GMEgLxPcx+WkIh2IV2pDtGQR60U05BmUy8rUEZHPOx6hTPWSDiN7Ztb9C5uXKjc5
KTxT61rOagEzL6CBHrjbQ2DLm/KTZhlhByHaOTZqrwWMFLipPe6NqLjQ6RzWXYp3
NeOYquz7vcC8+6LHp1PvOb4IkqT/LgTcMxF1YoY0AbKYajF20v255/wGAjrxy11l
M7+4+iX6KywXbL6zmavMXwAxCdxF7NuJGFER8EtM7IMVuqtA25QBdNfkaFR3Li/g
g+Z881fgATK87WF+Gqmuixq+E+WKArjhiM2LRf9Ez3aRaA==
-----END CERTIFICATE-----
